; Function Attrs: nounwind uwtable
define dso_local { i64, ptr } @jv_string_empty(i32 noundef %0) local_unnamed_addr #2 {
  %2 = zext i32 %0 to i64
  %3 = add nuw nsw i64 %2, 17
  %4 = tail call noundef ptr @jv_mem_alloc(i64 noundef %3) #25
  store i32 1, ptr %4, align 4, !tbaa !9
  %5 = getelementptr inbounds nuw i8, ptr %4, i64 12
  store i32 %0, ptr %5, align 4, !tbaa !4
  %6 = getelementptr inbounds nuw i8, ptr %4, i64 8
  store i32 0, ptr %6, align 4, !tbaa !4
  %7 = getelementptr inbounds nuw i8, ptr %4, i64 16
  tail call void @llvm.memset.p0.i64(ptr nonnull align 4 %7, i8 0, i64 %2, i1 false)
  %.fca.1.insert.i = insertvalue { i64, ptr } { i64 133, ptr poison }, ptr %4, 1
  ret { i64, ptr } %.fca.1.insert.i
}